
test:     file format elf64-littleriscv


Disassembly of section .plt:

0000000000010420 <_PROCEDURE_LINKAGE_TABLE_>:
   10420:	00002397          	auipc	t2,0x2
   10424:	41c30333          	sub	t1,t1,t3
   10428:	bd03be03          	ld	t3,-1072(t2) # 11ff0 <.got.plt>
   1042c:	fd430313          	addi	t1,t1,-44
   10430:	bd038293          	addi	t0,t2,-1072
   10434:	00135313          	srli	t1,t1,0x1
   10438:	0082b283          	ld	t0,8(t0)
   1043c:	000e0067          	jr	t3 # 1a000 <__global_pointer$+0x77f0>

0000000000010440 <__libc_start_main@plt>:
   10440:	00002e17          	auipc	t3,0x2
   10444:	bc0e3e03          	ld	t3,-1088(t3) # 12000 <__libc_start_main@GLIBC_2.34>
   10448:	000e0367          	jalr	t1,t3
   1044c:	00000013          	nop

0000000000010450 <puts@plt>:
   10450:	00002e17          	auipc	t3,0x2
   10454:	bb8e3e03          	ld	t3,-1096(t3) # 12008 <puts@GLIBC_2.27>
   10458:	000e0367          	jalr	t1,t3
   1045c:	00000013          	nop

Disassembly of section .text:

0000000000010460 <_start>:
   10460:	022000ef          	jal	10482 <load_gp>
   10464:	87aa                	mv	a5,a0
   10466:	00000517          	auipc	a0,0x0
   1046a:	0c650513          	addi	a0,a0,198 # 1052c <main>
   1046e:	6582                	ld	a1,0(sp)
   10470:	0030                	addi	a2,sp,8
   10472:	ff017113          	andi	sp,sp,-16
   10476:	4681                	li	a3,0
   10478:	4701                	li	a4,0
   1047a:	880a                	mv	a6,sp
   1047c:	fc5ff0ef          	jal	10440 <__libc_start_main@plt>
   10480:	9002                	ebreak

0000000000010482 <load_gp>:
   10482:	00002197          	auipc	gp,0x2
   10486:	38e18193          	addi	gp,gp,910 # 12810 <__global_pointer$>
   1048a:	8082                	ret
   1048c:	0000                	unimp
	...

0000000000010490 <deregister_tm_clones>:
   10490:	00012537          	lui	a0,0x12
   10494:	00012737          	lui	a4,0x12
   10498:	01050793          	addi	a5,a0,16 # 12010 <__TMC_END__>
   1049c:	01070713          	addi	a4,a4,16 # 12010 <__TMC_END__>
   104a0:	00f70a63          	beq	a4,a5,104b4 <deregister_tm_clones+0x24>
   104a4:	00000793          	li	a5,0
   104a8:	00078663          	beqz	a5,104b4 <deregister_tm_clones+0x24>
   104ac:	01050513          	addi	a0,a0,16
   104b0:	00078067          	jr	a5
   104b4:	00008067          	ret

00000000000104b8 <register_tm_clones>:
   104b8:	00012537          	lui	a0,0x12
   104bc:	01050793          	addi	a5,a0,16 # 12010 <__TMC_END__>
   104c0:	00012737          	lui	a4,0x12
   104c4:	01070593          	addi	a1,a4,16 # 12010 <__TMC_END__>
   104c8:	40f585b3          	sub	a1,a1,a5
   104cc:	4035d793          	srai	a5,a1,0x3
   104d0:	03f5d593          	srli	a1,a1,0x3f
   104d4:	00f585b3          	add	a1,a1,a5
   104d8:	4015d593          	srai	a1,a1,0x1
   104dc:	00058a63          	beqz	a1,104f0 <register_tm_clones+0x38>
   104e0:	00000793          	li	a5,0
   104e4:	00078663          	beqz	a5,104f0 <register_tm_clones+0x38>
   104e8:	01050513          	addi	a0,a0,16
   104ec:	00078067          	jr	a5
   104f0:	00008067          	ret

00000000000104f4 <__do_global_dtors_aux>:
   104f4:	ff010113          	addi	sp,sp,-16
   104f8:	00813023          	sd	s0,0(sp)
   104fc:	00012437          	lui	s0,0x12
   10500:	01844783          	lbu	a5,24(s0) # 12018 <completed.0>
   10504:	00113423          	sd	ra,8(sp)
   10508:	00079863          	bnez	a5,10518 <__do_global_dtors_aux+0x24>
   1050c:	f85ff0ef          	jal	10490 <deregister_tm_clones>
   10510:	00100793          	li	a5,1
   10514:	00f40c23          	sb	a5,24(s0)
   10518:	00813083          	ld	ra,8(sp)
   1051c:	00013403          	ld	s0,0(sp)
   10520:	01010113          	addi	sp,sp,16
   10524:	00008067          	ret

0000000000010528 <frame_dummy>:
   10528:	f91ff06f          	j	104b8 <register_tm_clones>

000000000001052c <main>:
   1052c:	ff010113          	addi	sp,sp,-16
   10530:	00113423          	sd	ra,8(sp)
   10534:	00813023          	sd	s0,0(sp)
   10538:	01010413          	addi	s0,sp,16
   1053c:	000107b7          	lui	a5,0x10
   10540:	56878513          	addi	a0,a5,1384 # 10568 <_IO_stdin_used+0x8>
   10544:	f0dff0ef          	jal	10450 <puts@plt>
   10548:	00000793          	li	a5,0
   1054c:	00078513          	mv	a0,a5
   10550:	00813083          	ld	ra,8(sp)
   10554:	00013403          	ld	s0,0(sp)
   10558:	01010113          	addi	sp,sp,16
   1055c:	00008067          	ret
